target datalayout = "e-m:e-p270:32:32-p271:32:32-p272:64:64-i64:64-i128:128-f80:128-n8:16:32:64-S128"
target triple = "x86_64-pc-linux-gnu"

%"class.google::protobuf::io::ZeroCopyInputStream" = type { ptr }
%"class.google::protobuf::io::ConcatenatingInputStream" = type { %"class.google::protobuf::io::ZeroCopyInputStream", ptr, i32, i64 }

; Function Attrs: mustprogress uwtable
define hidden noundef zeroext i1 @_ZN6google8protobuf2io24ConcatenatingInputStream4NextEPPKvPi(ptr noundef nonnull align 8 dereferenceable(32) %0, ptr noundef %1, ptr noundef %2) unnamed_addr #4 align 2 {
  %4 = alloca i1, align 1
  %5 = alloca ptr, align 8
  %6 = alloca ptr, align 8
  %7 = alloca ptr, align 8
  store ptr %0, ptr %5, align 8, !tbaa !76
  store ptr %1, ptr %6, align 8, !tbaa !24
  store ptr %2, ptr %7, align 8, !tbaa !26
  %8 = load ptr, ptr %5, align 8
  br label %9

9:                                                ; preds = %25, %3
  %10 = getelementptr inbounds nuw %"class.google::protobuf::io::ConcatenatingInputStream", ptr %8, i32 0, i32 2
  %11 = load i32, ptr %10, align 8, !tbaa !83
  %12 = icmp sgt i32 %11, 0
  br i1 %12, label %13, label %43

13:                                               ; preds = %9
  %14 = getelementptr inbounds nuw %"class.google::protobuf::io::ConcatenatingInputStream", ptr %8, i32 0, i32 1
  %15 = load ptr, ptr %14, align 8, !tbaa !80
  %16 = getelementptr inbounds ptr, ptr %15, i64 0
  %17 = load ptr, ptr %16, align 8, !tbaa !12
  %18 = load ptr, ptr %6, align 8, !tbaa !24
  %19 = load ptr, ptr %7, align 8, !tbaa !26
  %20 = load ptr, ptr %17, align 8, !tbaa !10
  %21 = getelementptr inbounds ptr, ptr %20, i64 2
  %22 = load ptr, ptr %21, align 8
  %23 = call noundef zeroext i1 %22(ptr noundef nonnull align 8 dereferenceable(8) %17, ptr noundef %18, ptr noundef %19)
  br i1 %23, label %24, label %25

24:                                               ; preds = %13
  store i1 true, ptr %4, align 1
  br label %44

25:                                               ; preds = %13
  %26 = getelementptr inbounds nuw %"class.google::protobuf::io::ConcatenatingInputStream", ptr %8, i32 0, i32 1
  %27 = load ptr, ptr %26, align 8, !tbaa !80
  %28 = getelementptr inbounds ptr, ptr %27, i64 0
  %29 = load ptr, ptr %28, align 8, !tbaa !12
  %30 = load ptr, ptr %29, align 8, !tbaa !10
  %31 = getelementptr inbounds ptr, ptr %30, i64 5
  %32 = load ptr, ptr %31, align 8
  %33 = call noundef i64 %32(ptr noundef nonnull align 8 dereferenceable(8) %29)
  %34 = getelementptr inbounds nuw %"class.google::protobuf::io::ConcatenatingInputStream", ptr %8, i32 0, i32 3
  %35 = load i64, ptr %34, align 8, !tbaa !84
  %36 = add nsw i64 %35, %33
  store i64 %36, ptr %34, align 8, !tbaa !84
  %37 = getelementptr inbounds nuw %"class.google::protobuf::io::ConcatenatingInputStream", ptr %8, i32 0, i32 1
  %38 = load ptr, ptr %37, align 8, !tbaa !80
  %39 = getelementptr inbounds nuw ptr, ptr %38, i32 1
  store ptr %39, ptr %37, align 8, !tbaa !80
  %40 = getelementptr inbounds nuw %"class.google::protobuf::io::ConcatenatingInputStream", ptr %8, i32 0, i32 2
  %41 = load i32, ptr %40, align 8, !tbaa !83
  %42 = add nsw i32 %41, -1
  store i32 %42, ptr %40, align 8, !tbaa !83
  br label %9, !llvm.loop !85

43:                                               ; preds = %9
  store i1 false, ptr %4, align 1
  br label %44

44:                                               ; preds = %43, %24
  %45 = load i1, ptr %4, align 1
  ret i1 %45
}