; Function Attrs: mustprogress uwtable
define hidden noundef zeroext i1 @_ZN6google8protobuf2io24ConcatenatingInputStream4NextEPPKvPi(ptr noundef nonnull align 8 captures(none) dereferenceable(32) %0, ptr noundef %1, ptr noundef %2) unnamed_addr #3 align 2 {
  %4 = getelementptr inbounds nuw i8, ptr %0, i64 16
  %5 = load i32, ptr %4, align 8, !tbaa !54
  %6 = icmp sgt i32 %5, 0
  br i1 %6, label %.lr.ph, label %._crit_edge

.lr.ph:                                           ; preds = %3
  %7 = getelementptr inbounds nuw i8, ptr %0, i64 8
  %8 = getelementptr inbounds nuw i8, ptr %0, i64 24
  %.pre = load ptr, ptr %7, align 8, !tbaa !49
  br label %9

9:                                                ; preds = %.lr.ph, %16
  %10 = phi ptr [ %.pre, %.lr.ph ], [ %26, %16 ]
  %11 = load ptr, ptr %10, align 8, !tbaa !56
  %12 = load ptr, ptr %11, align 8, !tbaa !3
  %13 = getelementptr inbounds nuw i8, ptr %12, i64 16
  %14 = load ptr, ptr %13, align 8
  %15 = tail call noundef zeroext i1 %14(ptr noundef nonnull align 8 dereferenceable(8) %11, ptr noundef %1, ptr noundef %2)
  br i1 %15, label %._crit_edge, label %16

16:                                               ; preds = %9
  %17 = load ptr, ptr %7, align 8, !tbaa !49
  %18 = load ptr, ptr %17, align 8, !tbaa !56
  %19 = load ptr, ptr %18, align 8, !tbaa !3
  %20 = getelementptr inbounds nuw i8, ptr %19, i64 40
  %21 = load ptr, ptr %20, align 8
  %22 = tail call noundef i64 %21(ptr noundef nonnull align 8 dereferenceable(8) %18)
  %23 = load i64, ptr %8, align 8, !tbaa !55
  %24 = add nsw i64 %23, %22
  store i64 %24, ptr %8, align 8, !tbaa !55
  %25 = load ptr, ptr %7, align 8, !tbaa !49
  %26 = getelementptr inbounds nuw i8, ptr %25, i64 8
  store ptr %26, ptr %7, align 8, !tbaa !49
  %27 = load i32, ptr %4, align 8, !tbaa !54
  %28 = add nsw i32 %27, -1
  store i32 %28, ptr %4, align 8, !tbaa !54
  %29 = icmp sgt i32 %27, 1
  br i1 %29, label %9, label %._crit_edge, !llvm.loop !58

._crit_edge:                                      ; preds = %9, %16, %3
  %.lcssa = phi i1 [ false, %3 ], [ %15, %16 ], [ %15, %9 ]
  ret i1 %.lcssa
}